target datalayout = "e-m:e-p270:32:32-p271:32:32-p272:64:64-i64:64-i128:128-f80:128-n8:16:32:64-S128"
target triple = "x86_64-pc-linux-gnu"

%struct.png_struct_def = type { [1 x %struct.__jmp_buf_tag], ptr, ptr, i64, ptr, ptr, ptr, ptr, ptr, ptr, ptr, ptr, ptr, i8, i8, i32, i32, i32, i32, %struct.z_stream_s, ptr, i32, i32, i32, i32, i32, i32, i32, i32, i32, i32, i32, i32, i32, i32, i32, i32, i32, i32, i32, i32, i64, i32, i32, i32, ptr, ptr, ptr, ptr, i64, i32, i32, ptr, i16, i32, i16, i8, i8, i8, i8, i8, i8, i8, i8, i8, i8, i8, i8, i8, i8, i8, i16, i8, i32, %struct.png_color_16_struct, %struct.png_color_16_struct, ptr, i32, i32, i32, i32, ptr, ptr, ptr, ptr, ptr, ptr, %struct.png_color_8_struct, %struct.png_color_8_struct, ptr, %struct.png_color_16_struct, ptr, ptr, ptr, ptr, ptr, ptr, ptr, ptr, ptr, i32, i32, i64, i64, i64, i64, i32, i32, ptr, ptr, i32, [29 x i8], i32, ptr, ptr, i32, i32, ptr, i8, i8, i16, i16, ptr, i32, i8, ptr, ptr, ptr, ptr, ptr, ptr, ptr, i8, i32, i32, i32, i64, %struct.png_unknown_chunk_t, i64, ptr, i64, i32, i32, ptr, [4 x ptr], %struct.png_colorspace }
%struct.__jmp_buf_tag = type { [8 x i64], i32, %struct.__sigset_t }
%struct.__sigset_t = type { [16 x i64] }
%struct.z_stream_s = type { ptr, i32, i64, ptr, i32, i64, ptr, ptr, ptr, ptr, ptr, i32, i64, i64 }
%struct.png_color_8_struct = type { i8, i8, i8, i8, i8 }
%struct.png_color_16_struct = type { i8, i16, i16, i16, i16 }
%struct.png_unknown_chunk_t = type { [5 x i8], ptr, i64, i8 }
%struct.png_colorspace = type { i32, %struct.png_xy, %struct.png_XYZ, i16, i16 }
%struct.png_xy = type { i32, i32, i32, i32, i32, i32, i32, i32 }
%struct.png_XYZ = type { i32, i32, i32, i32, i32, i32, i32, i32, i32 }

; Function Attrs: nounwind uwtable
define internal void @png_read_destroy(ptr noalias noundef %0) #0 {
  %2 = alloca ptr, align 8
  store ptr %0, ptr %2, align 8
  %3 = load ptr, ptr %2, align 8
  call void @png_destroy_gamma_table(ptr noundef %3)
  %4 = load ptr, ptr %2, align 8
  %5 = load ptr, ptr %2, align 8
  %6 = getelementptr inbounds %struct.png_struct_def, ptr %5, i32 0, i32 128
  %7 = load ptr, ptr %6, align 8
  call void @png_free(ptr noundef %4, ptr noundef %7)
  %8 = load ptr, ptr %2, align 8
  %9 = getelementptr inbounds %struct.png_struct_def, ptr %8, i32 0, i32 128
  store ptr null, ptr %9, align 8
  %10 = load ptr, ptr %2, align 8
  %11 = load ptr, ptr %2, align 8
  %12 = getelementptr inbounds %struct.png_struct_def, ptr %11, i32 0, i32 143
  %13 = load ptr, ptr %12, align 8
  call void @png_free(ptr noundef %10, ptr noundef %13)
  %14 = load ptr, ptr %2, align 8
  %15 = getelementptr inbounds %struct.png_struct_def, ptr %14, i32 0, i32 143
  store ptr null, ptr %15, align 8
  %16 = load ptr, ptr %2, align 8
  %17 = load ptr, ptr %2, align 8
  %18 = getelementptr inbounds %struct.png_struct_def, ptr %17, i32 0, i32 139
  %19 = load ptr, ptr %18, align 8
  call void @png_free(ptr noundef %16, ptr noundef %19)
  %20 = load ptr, ptr %2, align 8
  %21 = getelementptr inbounds %struct.png_struct_def, ptr %20, i32 0, i32 139
  store ptr null, ptr %21, align 8
  %22 = load ptr, ptr %2, align 8
  %23 = load ptr, ptr %2, align 8
  %24 = getelementptr inbounds %struct.png_struct_def, ptr %23, i32 0, i32 108
  %25 = load ptr, ptr %24, align 8
  call void @png_free(ptr noundef %22, ptr noundef %25)
  %26 = load ptr, ptr %2, align 8
  %27 = getelementptr inbounds %struct.png_struct_def, ptr %26, i32 0, i32 108
  store ptr null, ptr %27, align 8
  %28 = load ptr, ptr %2, align 8
  %29 = load ptr, ptr %2, align 8
  %30 = getelementptr inbounds %struct.png_struct_def, ptr %29, i32 0, i32 109
  %31 = load ptr, ptr %30, align 8
  call void @png_free(ptr noundef %28, ptr noundef %31)
  %32 = load ptr, ptr %2, align 8
  %33 = getelementptr inbounds %struct.png_struct_def, ptr %32, i32 0, i32 109
  store ptr null, ptr %33, align 8
  %34 = load ptr, ptr %2, align 8
  %35 = getelementptr inbounds %struct.png_struct_def, ptr %34, i32 0, i32 112
  %36 = load i32, ptr %35, align 4
  %37 = and i32 %36, 4096
  %38 = icmp ne i32 %37, 0
  br i1 %38, label %39, label %46

39:                                               ; preds = %1
  %40 = load ptr, ptr %2, align 8
  %41 = load ptr, ptr %2, align 8
  %42 = getelementptr inbounds %struct.png_struct_def, ptr %41, i32 0, i32 52
  %43 = load ptr, ptr %42, align 8
  call void @png_zfree(ptr noundef %40, ptr noundef %43)
  %44 = load ptr, ptr %2, align 8
  %45 = getelementptr inbounds %struct.png_struct_def, ptr %44, i32 0, i32 52
  store ptr null, ptr %45, align 8
  br label %46

46:                                               ; preds = %39, %1
  %47 = load ptr, ptr %2, align 8
  %48 = getelementptr inbounds %struct.png_struct_def, ptr %47, i32 0, i32 112
  %49 = load i32, ptr %48, align 4
  %50 = and i32 %49, -4097
  store i32 %50, ptr %48, align 4
  %51 = load ptr, ptr %2, align 8
  %52 = getelementptr inbounds %struct.png_struct_def, ptr %51, i32 0, i32 112
  %53 = load i32, ptr %52, align 4
  %54 = and i32 %53, 8192
  %55 = icmp ne i32 %54, 0
  br i1 %55, label %56, label %63

56:                                               ; preds = %46
  %57 = load ptr, ptr %2, align 8
  %58 = load ptr, ptr %2, align 8
  %59 = getelementptr inbounds %struct.png_struct_def, ptr %58, i32 0, i32 89
  %60 = load ptr, ptr %59, align 8
  call void @png_free(ptr noundef %57, ptr noundef %60)
  %61 = load ptr, ptr %2, align 8
  %62 = getelementptr inbounds %struct.png_struct_def, ptr %61, i32 0, i32 89
  store ptr null, ptr %62, align 8
  br label %63

63:                                               ; preds = %56, %46
  %64 = load ptr, ptr %2, align 8
  %65 = getelementptr inbounds %struct.png_struct_def, ptr %64, i32 0, i32 112
  %66 = load i32, ptr %65, align 4
  %67 = and i32 %66, -8193
  store i32 %67, ptr %65, align 4
  %68 = load ptr, ptr %2, align 8
  %69 = getelementptr inbounds %struct.png_struct_def, ptr %68, i32 0, i32 19
  %70 = call i32 @inflateEnd(ptr noundef %69)
  %71 = load ptr, ptr %2, align 8
  %72 = load ptr, ptr %2, align 8
  %73 = getelementptr inbounds %struct.png_struct_def, ptr %72, i32 0, i32 97
  %74 = load ptr, ptr %73, align 8
  call void @png_free(ptr noundef %71, ptr noundef %74)
  %75 = load ptr, ptr %2, align 8
  %76 = getelementptr inbounds %struct.png_struct_def, ptr %75, i32 0, i32 97
  store ptr null, ptr %76, align 8
  %77 = load ptr, ptr %2, align 8
  %78 = load ptr, ptr %2, align 8
  %79 = getelementptr inbounds %struct.png_struct_def, ptr %78, i32 0, i32 137
  %80 = getelementptr inbounds %struct.png_unknown_chunk_t, ptr %79, i32 0, i32 1
  %81 = load ptr, ptr %80, align 8
  call void @png_free(ptr noundef %77, ptr noundef %81)
  %82 = load ptr, ptr %2, align 8
  %83 = getelementptr inbounds %struct.png_struct_def, ptr %82, i32 0, i32 137
  %84 = getelementptr inbounds %struct.png_unknown_chunk_t, ptr %83, i32 0, i32 1
  store ptr null, ptr %84, align 8
  %85 = load ptr, ptr %2, align 8
  %86 = load ptr, ptr %2, align 8
  %87 = getelementptr inbounds %struct.png_struct_def, ptr %86, i32 0, i32 117
  %88 = load ptr, ptr %87, align 8
  call void @png_free(ptr noundef %85, ptr noundef %88)
  %89 = load ptr, ptr %2, align 8
  %90 = getelementptr inbounds %struct.png_struct_def, ptr %89, i32 0, i32 117
  store ptr null, ptr %90, align 8
  %91 = load ptr, ptr %2, align 8
  %92 = load ptr, ptr %2, align 8
  %93 = getelementptr inbounds %struct.png_struct_def, ptr %92, i32 0, i32 122
  %94 = load ptr, ptr %93, align 8
  call void @png_free(ptr noundef %91, ptr noundef %94)
  %95 = load ptr, ptr %2, align 8
  %96 = getelementptr inbounds %struct.png_struct_def, ptr %95, i32 0, i32 122
  store ptr null, ptr %96, align 8
  ret void
}

; Function Attrs: nounwind uwtable
define void @png_destroy_read_struct(ptr noundef %0, ptr noundef %1, ptr noundef %2) #0 {
  %4 = alloca ptr, align 8
  %5 = alloca ptr, align 8
  %6 = alloca ptr, align 8
  %7 = alloca ptr, align 8
  store ptr %0, ptr %4, align 8
  store ptr %1, ptr %5, align 8
  store ptr %2, ptr %6, align 8
  store ptr null, ptr %7, align 8
  %8 = load ptr, ptr %4, align 8
  %9 = icmp ne ptr %8, null
  br i1 %9, label %10, label %13

10:                                               ; preds = %3
  %11 = load ptr, ptr %4, align 8
  %12 = load ptr, ptr %11, align 8
  store ptr %12, ptr %7, align 8
  br label %13

13:                                               ; preds = %10, %3
  %14 = load ptr, ptr %7, align 8
  %15 = icmp eq ptr %14, null
  br i1 %15, label %16, label %17

16:                                               ; preds = %13
  br label %25

17:                                               ; preds = %13
  %18 = load ptr, ptr %7, align 8
  %19 = load ptr, ptr %6, align 8
  call void @png_destroy_info_struct(ptr noundef %18, ptr noundef %19)
  %20 = load ptr, ptr %7, align 8
  %21 = load ptr, ptr %5, align 8
  call void @png_destroy_info_struct(ptr noundef %20, ptr noundef %21)
  %22 = load ptr, ptr %4, align 8
  store ptr null, ptr %22, align 8
  %23 = load ptr, ptr %7, align 8
  call void @png_read_destroy(ptr noundef %23)
  %24 = load ptr, ptr %7, align 8
  call void @png_destroy_png_struct(ptr noundef %24)
  br label %25

25:                                               ; preds = %17, %16
  ret void
}